target datalayout = "e-m:e-p270:32:32-p271:32:32-p272:64:64-i64:64-i128:128-f80:128-n8:16:32:64-S128"
target triple = "x86_64-pc-linux-gnu"

%struct.archive_read_filter = type { i64, ptr, ptr, ptr, ptr, ptr, ptr, i32, i32, i32, ptr, i64, ptr, i64, ptr, i64, ptr, i64, i8, i8, i8 }
%struct.archive_read = type { %struct.archive, ptr, i32, i64, i64, %struct.archive_read_client, [16 x %struct.archive_read_filter_bidder], ptr, i32, i64, i32, i32, [16 x %struct.archive_format_descriptor], ptr, ptr, ptr, %struct.anon }
%struct.archive = type { i32, i32, ptr, i32, ptr, i32, i32, ptr, %struct.archive_string, ptr, i32, i32, ptr, ptr, i64, i64, i64, i8, i64 }
%struct.archive_string = type { ptr, i64, i64 }
%struct.archive_read_client = type { ptr, ptr, ptr, ptr, ptr, ptr, i32, i32, i64, ptr }
%struct.archive_read_filter_bidder = type { ptr, ptr, ptr }
%struct.archive_format_descriptor = type { ptr, ptr, ptr, ptr, ptr, ptr, ptr, ptr, ptr, ptr, ptr }
%struct.anon = type { ptr, ptr, i32, ptr, ptr }
%struct.private_data = type { %struct.z_stream_s, i8, ptr, i64, i64, i64, i32, ptr, i8 }
%struct.z_stream_s = type { ptr, i32, i64, ptr, i32, i64, ptr, ptr, ptr, ptr, ptr, i32, i64, i64 }

@.str.11 = private unnamed_addr constant [35 x i8] c"Failed to clean up gzip compressor\00", align 1

; Function Attrs: nounwind uwtable
define internal i32 @gzip_filter_close(ptr noundef %0) #0 {
  %2 = alloca ptr, align 8
  %3 = alloca ptr, align 8
  %4 = alloca i32, align 4
  store ptr %0, ptr %2, align 8, !tbaa !13
  call void @llvm.lifetime.start.p0(i64 8, ptr %3) #8
  call void @llvm.lifetime.start.p0(i64 4, ptr %4) #8
  %5 = load ptr, ptr %2, align 8, !tbaa !13
  %6 = getelementptr inbounds nuw %struct.archive_read_filter, ptr %5, i32 0, i32 5
  %7 = load ptr, ptr %6, align 8, !tbaa !27
  store ptr %7, ptr %3, align 8, !tbaa !23
  store i32 0, ptr %4, align 4, !tbaa !15
  %8 = load ptr, ptr %3, align 8, !tbaa !23
  %9 = getelementptr inbounds nuw %struct.private_data, ptr %8, i32 0, i32 1
  %10 = load i8, ptr %9, align 8, !tbaa !34
  %11 = icmp ne i8 %10, 0
  br i1 %11, label %12, label %22

12:                                               ; preds = %1
  %13 = load ptr, ptr %3, align 8, !tbaa !23
  %14 = getelementptr inbounds nuw %struct.private_data, ptr %13, i32 0, i32 0
  %15 = call i32 @cm_zlib_inflateEnd(ptr noundef %14)
  switch i32 %15, label %16 [
    i32 0, label %21
  ]

16:                                               ; preds = %12
  %17 = load ptr, ptr %2, align 8, !tbaa !13
  %18 = getelementptr inbounds nuw %struct.archive_read_filter, ptr %17, i32 0, i32 3
  %19 = load ptr, ptr %18, align 8, !tbaa !26
  %20 = getelementptr inbounds nuw %struct.archive_read, ptr %19, i32 0, i32 0
  call void (ptr, i32, ptr, ...) @archive_set_error(ptr noundef %20, i32 noundef -1, ptr noundef @.str.11)
  store i32 -30, ptr %4, align 4, !tbaa !15
  br label %21

21:                                               ; preds = %16, %12
  br label %22

22:                                               ; preds = %21, %1
  %23 = load ptr, ptr %3, align 8, !tbaa !23
  %24 = getelementptr inbounds nuw %struct.private_data, ptr %23, i32 0, i32 7
  %25 = load ptr, ptr %24, align 8, !tbaa !43
  call void @free(ptr noundef %25) #8
  %26 = load ptr, ptr %3, align 8, !tbaa !23
  %27 = getelementptr inbounds nuw %struct.private_data, ptr %26, i32 0, i32 2
  %28 = load ptr, ptr %27, align 8, !tbaa !32
  call void @free(ptr noundef %28) #8
  %29 = load ptr, ptr %3, align 8, !tbaa !23
  call void @free(ptr noundef %29) #8
  %30 = load i32, ptr %4, align 4, !tbaa !15
  call void @llvm.lifetime.end.p0(i64 4, ptr %4) #8
  call void @llvm.lifetime.end.p0(i64 8, ptr %3) #8
  ret i32 %30
}