; Function Attrs: nounwind uwtable
define internal range(i32 -30, 1) i32 @gzip_filter_close(ptr noundef readonly captures(none) %0) #0 {
  %2 = getelementptr inbounds nuw i8, ptr %0, i64 40
  %3 = load ptr, ptr %2, align 8, !tbaa !18
  %4 = getelementptr inbounds nuw i8, ptr %3, i64 112
  %5 = load i8, ptr %4, align 8, !tbaa !36
  %.not = icmp eq i8 %5, 0
  br i1 %.not, label %11, label %6

6:                                                ; preds = %1
  %7 = tail call i32 @cm_zlib_inflateEnd(ptr noundef nonnull %3) #8
  %cond = icmp eq i32 %7, 0
  br i1 %cond, label %11, label %8

8:                                                ; preds = %6
  %9 = getelementptr inbounds nuw i8, ptr %0, i64 24
  %10 = load ptr, ptr %9, align 8, !tbaa !17
  tail call void (ptr, i32, ptr, ...) @archive_set_error(ptr noundef %10, i32 noundef -1, ptr noundef nonnull @.str.11) #8
  br label %11

11:                                               ; preds = %8, %6, %1
  %.0 = phi i32 [ 0, %6 ], [ -30, %8 ], [ 0, %1 ]
  %12 = getelementptr inbounds nuw i8, ptr %3, i64 160
  %13 = load ptr, ptr %12, align 8, !tbaa !30
  tail call void @free(ptr noundef %13) #8
  %14 = getelementptr inbounds nuw i8, ptr %3, i64 120
  %15 = load ptr, ptr %14, align 8, !tbaa !23
  tail call void @free(ptr noundef %15) #8
  tail call void @free(ptr noundef nonnull %3) #8
  ret i32 %.0
}